; ModuleID = 'source-C-CXX/39/1530.c'
source_filename = "source-C-CXX/39/1530.c"
target datalayout = "e-m:e-p270:32:32-p271:32:32-p272:64:64-i64:64-f80:128-n8:16:32:64-S128"
target triple = "x86_64-pc-linux-gnu"

@.str = private unnamed_addr constant [4 x i8] c"%lf\00", align 1
@.str.1 = private unnamed_addr constant [14 x i8] c"Invalid input\00", align 1
@.str.2 = private unnamed_addr constant [7 x i8] c"%.4lf\0A\00", align 1

; Function Attrs: nofree nounwind sspstrong uwtable
define dso_local i32 @main() local_unnamed_addr #0 {
  %1 = alloca [5 x double], align 16
  %2 = bitcast [5 x double]* %1 to i8*
  call void @llvm.lifetime.start.p0i8(i64 40, i8* nonnull %2) #4
  %3 = getelementptr inbounds [5 x double], [5 x double]* %1, i64 0, i64 0
  %4 = call i32 (i8*, ...) @__isoc99_scanf(i8* getelementptr inbounds ([4 x i8], [4 x i8]* @.str, i64 0, i64 0), double* nonnull %3)
  %5 = getelementptr inbounds [5 x double], [5 x double]* %1, i64 0, i64 1
  %6 = call i32 (i8*, ...) @__isoc99_scanf(i8* getelementptr inbounds ([4 x i8], [4 x i8]* @.str, i64 0, i64 0), double* nonnull %5)
  %7 = getelementptr inbounds [5 x double], [5 x double]* %1, i64 0, i64 2
  %8 = call i32 (i8*, ...) @__isoc99_scanf(i8* getelementptr inbounds ([4 x i8], [4 x i8]* @.str, i64 0, i64 0), double* nonnull %7)
  %9 = getelementptr inbounds [5 x double], [5 x double]* %1, i64 0, i64 3
  %10 = call i32 (i8*, ...) @__isoc99_scanf(i8* getelementptr inbounds ([4 x i8], [4 x i8]* @.str, i64 0, i64 0), double* nonnull %9)
  %11 = getelementptr inbounds [5 x double], [5 x double]* %1, i64 0, i64 4
  %12 = call i32 (i8*, ...) @__isoc99_scanf(i8* getelementptr inbounds ([4 x i8], [4 x i8]* @.str, i64 0, i64 0), double* nonnull %11)
  %13 = load double, double* %5, align 8, !tbaa !5
  %14 = load double, double* %7, align 16, !tbaa !5
  %15 = fadd double %13, %14
  %16 = load double, double* %9, align 8, !tbaa !5
  %17 = fadd double %15, %16
  %18 = load double, double* %3, align 16, !tbaa !5
  %19 = fadd double %17, %18
  %20 = fmul double %19, 5.000000e-01
  %21 = fsub double %20, %18
  %22 = fsub double %20, %13
  %23 = fmul double %21, %22
  %24 = fsub double %20, %14
  %25 = fmul double %23, %24
  %26 = fsub double %20, %16
  %27 = fmul double %25, %26
  %28 = fcmp olt double %27, 0.000000e+00
  br i1 %28, label %29, label %31

29:                                               ; preds = %0
  %30 = call i32 (i8*, ...) @printf(i8* nonnull dereferenceable(1) getelementptr inbounds ([14 x i8], [14 x i8]* @.str.1, i64 0, i64 0))
  br label %45

31:                                               ; preds = %0
  %32 = load double, double* %11, align 16, !tbaa !5
  %33 = fmul double %32, 5.000000e-01
  %34 = fdiv double %33, 1.800000e+02
  %35 = fmul double %34, 1.000000e+02
  %36 = fmul double %13, %14
  %37 = fmul double %36, %16
  %38 = fmul double %37, %18
  %39 = call double @cos(double %35) #4
  %40 = fmul double %39, %39
  %41 = fmul double %38, %40
  %42 = fsub double %27, %41
  %43 = call double @pow(double %42, double 5.000000e-01) #4
  %44 = call i32 (i8*, ...) @printf(i8* nonnull dereferenceable(1) getelementptr inbounds ([7 x i8], [7 x i8]* @.str.2, i64 0, i64 0), double %43)
  br label %45

45:                                               ; preds = %31, %29
  call void @llvm.lifetime.end.p0i8(i64 40, i8* nonnull %2) #4
  ret i32 0
}

; Function Attrs: argmemonly mustprogress nofree nosync nounwind willreturn
declare void @llvm.lifetime.start.p0i8(i64 immarg, i8* nocapture) #1

; Function Attrs: nofree nounwind
declare noundef i32 @__isoc99_scanf(i8* nocapture noundef readonly, ...) local_unnamed_addr #2

; Function Attrs: nofree nounwind
declare noundef i32 @printf(i8* nocapture noundef readonly, ...) local_unnamed_addr #2

; Function Attrs: mustprogress nofree nounwind willreturn
declare double @pow(double, double) local_unnamed_addr #3

; Function Attrs: mustprogress nofree nounwind willreturn
declare double @cos(double) local_unnamed_addr #3

; Function Attrs: argmemonly mustprogress nofree nosync nounwind willreturn
declare void @llvm.lifetime.end.p0i8(i64 immarg, i8* nocapture) #1


!llvm.module.flags = !{!0, !1, !2, !3}
!llvm.ident = !{!4}

!0 = !{i32 1, !"wchar_size", i32 4}
!1 = !{i32 7, !"PIC Level", i32 2}
!2 = !{i32 7, !"PIE Level", i32 2}
!3 = !{i32 7, !"uwtable", i32 1}
!4 = !{!"clang version 13.0.0"}
!5 = !{!6, !6, i64 0}
!6 = !{!"double", !7, i64 0}
!7 = !{!"omnipotent char", !8, i64 0}
!8 = !{!"Simple C/C++ TBAA"}
